target datalayout = "e-m:e-p270:32:32-p271:32:32-p272:64:64-i64:64-i128:128-f80:128-n8:16:32:64-S128"
target triple = "x86_64-pc-linux-gnu"

; Function Attrs: inlinehint mustprogress nounwind uwtable
define internal noundef signext i8 @_ZN6icu_77L16isLineTerminatorEi(i32 noundef %0) #2 {
  %2 = alloca i8, align 1
  %3 = alloca i32, align 4
  store i32 %0, ptr %3, align 4, !tbaa !14
  %4 = load i32, ptr %3, align 4, !tbaa !14
  %5 = and i32 %4, -8368
  %6 = icmp ne i32 %5, 0
  br i1 %6, label %7, label %8

7:                                                ; preds = %1
  store i8 0, ptr %2, align 1
  br label %26

8:                                                ; preds = %1
  %9 = load i32, ptr %3, align 4, !tbaa !14
  %10 = icmp sle i32 %9, 13
  br i1 %10, label %11, label %14

11:                                               ; preds = %8
  %12 = load i32, ptr %3, align 4, !tbaa !14
  %13 = icmp sge i32 %12, 10
  br i1 %13, label %23, label %14

14:                                               ; preds = %11, %8
  %15 = load i32, ptr %3, align 4, !tbaa !14
  %16 = icmp eq i32 %15, 133
  br i1 %16, label %23, label %17

17:                                               ; preds = %14
  %18 = load i32, ptr %3, align 4, !tbaa !14
  %19 = icmp eq i32 %18, 8232
  br i1 %19, label %23, label %20

20:                                               ; preds = %17
  %21 = load i32, ptr %3, align 4, !tbaa !14
  %22 = icmp eq i32 %21, 8233
  br label %23

23:                                               ; preds = %20, %17, %14, %11
  %24 = phi i1 [ true, %17 ], [ true, %14 ], [ true, %11 ], [ %22, %20 ]
  %25 = zext i1 %24 to i8
  store i8 %25, ptr %2, align 1
  br label %26

26:                                               ; preds = %23, %7
  %27 = load i8, ptr %2, align 1
  ret i8 %27
}