; Function Attrs: inlinehint mustprogress nofree norecurse nosync nounwind willreturn memory(none) uwtable
define internal fastcc noundef signext range(i8 0, 2) i8 @_ZN6icu_77L16isLineTerminatorEi(i32 noundef %0) unnamed_addr #14 {
  %2 = and i32 %0, -8368
  %.not = icmp eq i32 %2, 0
  br i1 %.not, label %3, label %7

3:                                                ; preds = %1
  switch i32 %0, label %4 [
    i32 8232, label %7
    i32 133, label %7
    i32 13, label %7
    i32 12, label %7
    i32 11, label %7
    i32 10, label %7
  ]

4:                                                ; preds = %3
  %5 = icmp eq i32 %0, 8233
  %6 = zext i1 %5 to i8
  br label %7

7:                                                ; preds = %4, %3, %3, %3, %3, %3, %3, %1
  %.0 = phi i8 [ 0, %1 ], [ %6, %4 ], [ 1, %3 ], [ 1, %3 ], [ 1, %3 ], [ 1, %3 ], [ 1, %3 ], [ 1, %3 ]
  ret i8 %.0
}